; Function Attrs: mustprogress uwtable
define noundef nonnull align 8 dereferenceable(8) ptr @_ZN2cv4gapi4s11nlsERNS1_8IOStreamERKNS0_3wip4draw6CircleE(ptr noundef nonnull align 8 dereferenceable(8) %0, ptr noundef nonnull readonly align 8 captures(none) dereferenceable(60) %1) local_unnamed_addr #3 {
  %3 = load i32, ptr %1, align 8, !tbaa !3
  %4 = load ptr, ptr %0, align 8, !tbaa !8
  %5 = getelementptr inbounds nuw i8, ptr %4, i64 56
  %6 = load ptr, ptr %5, align 8
  %7 = tail call noundef nonnull align 8 dereferenceable(8) ptr %6(ptr noundef nonnull align 8 dereferenceable(8) %0, i32 noundef %3)
  %8 = getelementptr inbounds nuw i8, ptr %1, i64 4
  %9 = load i32, ptr %8, align 4, !tbaa !10
  %10 = load ptr, ptr %7, align 8, !tbaa !8
  %11 = getelementptr inbounds nuw i8, ptr %10, i64 56
  %12 = load ptr, ptr %11, align 8
  %13 = tail call noundef nonnull align 8 dereferenceable(8) ptr %12(ptr noundef nonnull align 8 dereferenceable(8) %7, i32 noundef %9)
  %14 = getelementptr inbounds nuw i8, ptr %1, i64 16
  %15 = load double, ptr %14, align 8, !tbaa !27
  %16 = load ptr, ptr %13, align 8, !tbaa !8
  %17 = getelementptr inbounds nuw i8, ptr %16, i64 88
  %18 = load ptr, ptr %17, align 8
  %19 = tail call noundef nonnull align 8 dereferenceable(8) ptr %18(ptr noundef nonnull align 8 dereferenceable(8) %13, double noundef %15)
  %20 = getelementptr inbounds nuw i8, ptr %1, i64 24
  %21 = load double, ptr %20, align 8, !tbaa !27
  %22 = load ptr, ptr %19, align 8, !tbaa !8
  %23 = getelementptr inbounds nuw i8, ptr %22, i64 88
  %24 = load ptr, ptr %23, align 8
  %25 = tail call noundef nonnull align 8 dereferenceable(8) ptr %24(ptr noundef nonnull align 8 dereferenceable(8) %19, double noundef %21)
  %26 = getelementptr inbounds nuw i8, ptr %1, i64 32
  %27 = load double, ptr %26, align 8, !tbaa !27
  %28 = load ptr, ptr %25, align 8, !tbaa !8
  %29 = getelementptr inbounds nuw i8, ptr %28, i64 88
  %30 = load ptr, ptr %29, align 8
  %31 = tail call noundef nonnull align 8 dereferenceable(8) ptr %30(ptr noundef nonnull align 8 dereferenceable(8) %25, double noundef %27)
  %32 = getelementptr inbounds nuw i8, ptr %1, i64 40
  %33 = load double, ptr %32, align 8, !tbaa !27
  %34 = load ptr, ptr %31, align 8, !tbaa !8
  %35 = getelementptr inbounds nuw i8, ptr %34, i64 88
  %36 = load ptr, ptr %35, align 8
  %37 = tail call noundef nonnull align 8 dereferenceable(8) ptr %36(ptr noundef nonnull align 8 dereferenceable(8) %31, double noundef %33)
  %38 = getelementptr inbounds nuw i8, ptr %1, i64 52
  %39 = load i32, ptr %38, align 4, !tbaa !88
  %40 = load ptr, ptr %37, align 8, !tbaa !8
  %41 = getelementptr inbounds nuw i8, ptr %40, i64 56
  %42 = load ptr, ptr %41, align 8
  %43 = tail call noundef nonnull align 8 dereferenceable(8) ptr %42(ptr noundef nonnull align 8 dereferenceable(8) %37, i32 noundef %39)
  %44 = getelementptr inbounds nuw i8, ptr %1, i64 8
  %45 = load i32, ptr %44, align 8, !tbaa !90
  %46 = load ptr, ptr %43, align 8, !tbaa !8
  %47 = getelementptr inbounds nuw i8, ptr %46, i64 56
  %48 = load ptr, ptr %47, align 8
  %49 = tail call noundef nonnull align 8 dereferenceable(8) ptr %48(ptr noundef nonnull align 8 dereferenceable(8) %43, i32 noundef %45)
  %50 = getelementptr inbounds nuw i8, ptr %1, i64 56
  %51 = load i32, ptr %50, align 8, !tbaa !91
  %52 = load ptr, ptr %49, align 8, !tbaa !8
  %53 = getelementptr inbounds nuw i8, ptr %52, i64 56
  %54 = load ptr, ptr %53, align 8
  %55 = tail call noundef nonnull align 8 dereferenceable(8) ptr %54(ptr noundef nonnull align 8 dereferenceable(8) %49, i32 noundef %51)
  %56 = getelementptr inbounds nuw i8, ptr %1, i64 48
  %57 = load i32, ptr %56, align 8, !tbaa !92
  %58 = load ptr, ptr %55, align 8, !tbaa !8
  %59 = getelementptr inbounds nuw i8, ptr %58, i64 56
  %60 = load ptr, ptr %59, align 8
  %61 = tail call noundef nonnull align 8 dereferenceable(8) ptr %60(ptr noundef nonnull align 8 dereferenceable(8) %55, i32 noundef %57)
  ret ptr %61
}